target datalayout = "e-m:e-p270:32:32-p271:32:32-p272:64:64-i64:64-i128:128-f80:128-n8:16:32:64-S128"
target triple = "x86_64-pc-linux-gnu"

; Function Attrs: nounwind uwtable
define internal void @vector_dmac_scalar_c(ptr noundef %0, ptr noundef %1, double noundef %2, i32 noundef %3) #0 {
  %5 = alloca ptr, align 8
  %6 = alloca ptr, align 8
  %7 = alloca double, align 8
  %8 = alloca i32, align 4
  %9 = alloca i32, align 4
  store ptr %0, ptr %5, align 8, !tbaa !4
  store ptr %1, ptr %6, align 8, !tbaa !4
  store double %2, ptr %7, align 8, !tbaa !11
  store i32 %3, ptr %8, align 4, !tbaa !15
  call void @llvm.lifetime.start.p0(i64 4, ptr %9) #5
  store i32 0, ptr %9, align 4, !tbaa !15
  br label %10

10:                                               ; preds = %27, %4
  %11 = load i32, ptr %9, align 4, !tbaa !15
  %12 = load i32, ptr %8, align 4, !tbaa !15
  %13 = icmp slt i32 %11, %12
  br i1 %13, label %14, label %30

14:                                               ; preds = %10
  %15 = load ptr, ptr %6, align 8, !tbaa !4
  %16 = load i32, ptr %9, align 4, !tbaa !15
  %17 = sext i32 %16 to i64
  %18 = getelementptr inbounds double, ptr %15, i64 %17
  %19 = load double, ptr %18, align 8, !tbaa !11
  %20 = load double, ptr %7, align 8, !tbaa !11
  %21 = load ptr, ptr %5, align 8, !tbaa !4
  %22 = load i32, ptr %9, align 4, !tbaa !15
  %23 = sext i32 %22 to i64
  %24 = getelementptr inbounds double, ptr %21, i64 %23
  %25 = load double, ptr %24, align 8, !tbaa !11
  %26 = call nsz double @llvm.fmuladd.f64(double %19, double %20, double %25)
  store double %26, ptr %24, align 8, !tbaa !11
  br label %27

27:                                               ; preds = %14
  %28 = load i32, ptr %9, align 4, !tbaa !15
  %29 = add nsw i32 %28, 1
  store i32 %29, ptr %9, align 4, !tbaa !15
  br label %10, !llvm.loop !40

30:                                               ; preds = %10
  call void @llvm.lifetime.end.p0(i64 4, ptr %9) #5
  ret void
}